target datalayout = "e-m:e-p270:32:32-p271:32:32-p272:64:64-i64:64-i128:128-f80:128-n8:16:32:64-S128"
target triple = "x86_64-pc-linux-gnu"

%struct.H5L_elink_cb_t = type { ptr, ptr }

@.str.1 = private unnamed_addr constant [101 x i8] c"generated/home/dtcxzyw/WorkSpace/Projects/compilers/llvm-opt-benchmark/bench/hdf5/hdf5/src/H5Plapl.c\00", align 1
@.str.6 = private unnamed_addr constant [15 x i8] c"max soft links\00", align 1
@H5E_PLIST_g = external global i64, align 8
@.str.10 = private unnamed_addr constant [21 x i8] c"external link prefix\00", align 1
@.str.14 = private unnamed_addr constant [19 x i8] c"external link fapl\00", align 1
@.str.18 = private unnamed_addr constant [20 x i8] c"external link flags\00", align 1
@.str.22 = private unnamed_addr constant [23 x i8] c"external link callback\00", align 1
@H5L_def_nlinks_g = internal constant i64 16, align 8
@__func__.H5P__lacc_reg_prop = private unnamed_addr constant [19 x i8] c"H5P__lacc_reg_prop\00", align 1
@H5E_CANTINSERT_g = external global i64, align 8
@.str.25 = private unnamed_addr constant [33 x i8] c"can't insert property into class\00", align 1
@H5L_def_elink_prefix_g = internal global ptr null, align 8
@H5L_def_fapl_id_g = internal constant i64 0, align 8
@H5L_def_elink_flags_g = internal constant i32 65535, align 4
@H5L_def_elink_cb_g = internal constant %struct.H5L_elink_cb_t zeroinitializer, align 8

; Function Attrs: nounwind uwtable
define internal i32 @H5P__lacc_reg_prop(ptr noundef %0) #0 {
  %2 = alloca ptr, align 8
  %3 = alloca i32, align 4
  %4 = alloca i8, align 1
  store ptr %0, ptr %2, align 8
  store i32 0, ptr %3, align 4
  store i8 0, ptr %4, align 1
  %5 = load ptr, ptr %2, align 8
  %6 = call i32 @H5P__register_real(ptr noundef %5, ptr noundef @.str.6, i64 noundef 8, ptr noundef @H5L_def_nlinks_g, ptr noundef null, ptr noundef null, ptr noundef null, ptr noundef @H5P__encode_size_t, ptr noundef @H5P__decode_size_t, ptr noundef null, ptr noundef null, ptr noundef null, ptr noundef null)
  %7 = icmp slt i32 %6, 0
  br i1 %7, label %8, label %23

8:                                                ; preds = %1
  br label %9

9:                                                ; preds = %8
  br label %10

10:                                               ; preds = %9
  br label %11

11:                                               ; preds = %10
  %12 = load i64, ptr @H5E_PLIST_g, align 8
  %13 = load i64, ptr @H5E_CANTINSERT_g, align 8
  %14 = call i32 (ptr, ptr, i32, i64, i64, ptr, ...) @H5E_printf_stack(ptr noundef @.str.1, ptr noundef @__func__.H5P__lacc_reg_prop, i32 noundef 192, i64 noundef %12, i64 noundef %13, ptr noundef @.str.25)
  br label %15

15:                                               ; preds = %11
  store i8 1, ptr %4, align 1
  %16 = load i8, ptr %4, align 1
  %17 = trunc i8 %16 to i1
  %18 = zext i1 %17 to i8
  store i8 %18, ptr %4, align 1
  br label %19

19:                                               ; preds = %15
  br label %20

20:                                               ; preds = %19
  store i32 -1, ptr %3, align 4
  br label %100

21:                                               ; No predecessors!
  br label %22

22:                                               ; preds = %21
  br label %23

23:                                               ; preds = %22, %1
  %24 = load ptr, ptr %2, align 8
  %25 = call i32 @H5P__register_real(ptr noundef %24, ptr noundef @.str.10, i64 noundef 8, ptr noundef @H5L_def_elink_prefix_g, ptr noundef null, ptr noundef @H5P__lacc_elink_pref_set, ptr noundef @H5P__lacc_elink_pref_get, ptr noundef @H5P__lacc_elink_pref_enc, ptr noundef @H5P__lacc_elink_pref_dec, ptr noundef @H5P__lacc_elink_pref_del, ptr noundef @H5P__lacc_elink_pref_copy, ptr noundef @H5P__lacc_elink_pref_cmp, ptr noundef @H5P__lacc_elink_pref_close)
  %26 = icmp slt i32 %25, 0
  br i1 %26, label %27, label %42

27:                                               ; preds = %23
  br label %28

28:                                               ; preds = %27
  br label %29

29:                                               ; preds = %28
  br label %30

30:                                               ; preds = %29
  %31 = load i64, ptr @H5E_PLIST_g, align 8
  %32 = load i64, ptr @H5E_CANTINSERT_g, align 8
  %33 = call i32 (ptr, ptr, i32, i64, i64, ptr, ...) @H5E_printf_stack(ptr noundef @.str.1, ptr noundef @__func__.H5P__lacc_reg_prop, i32 noundef 200, i64 noundef %31, i64 noundef %32, ptr noundef @.str.25)
  br label %34

34:                                               ; preds = %30
  store i8 1, ptr %4, align 1
  %35 = load i8, ptr %4, align 1
  %36 = trunc i8 %35 to i1
  %37 = zext i1 %36 to i8
  store i8 %37, ptr %4, align 1
  br label %38

38:                                               ; preds = %34
  br label %39

39:                                               ; preds = %38
  store i32 -1, ptr %3, align 4
  br label %100

40:                                               ; No predecessors!
  br label %41

41:                                               ; preds = %40
  br label %42

42:                                               ; preds = %41, %23
  %43 = load ptr, ptr %2, align 8
  %44 = call i32 @H5P__register_real(ptr noundef %43, ptr noundef @.str.14, i64 noundef 8, ptr noundef @H5L_def_fapl_id_g, ptr noundef null, ptr noundef @H5P__lacc_elink_fapl_set, ptr noundef @H5P__lacc_elink_fapl_get, ptr noundef @H5P__lacc_elink_fapl_enc, ptr noundef @H5P__lacc_elink_fapl_dec, ptr noundef @H5P__lacc_elink_fapl_del, ptr noundef @H5P__lacc_elink_fapl_copy, ptr noundef @H5P__lacc_elink_fapl_cmp, ptr noundef @H5P__lacc_elink_fapl_close)
  %45 = icmp slt i32 %44, 0
  br i1 %45, label %46, label %61

46:                                               ; preds = %42
  br label %47

47:                                               ; preds = %46
  br label %48

48:                                               ; preds = %47
  br label %49

49:                                               ; preds = %48
  %50 = load i64, ptr @H5E_PLIST_g, align 8
  %51 = load i64, ptr @H5E_CANTINSERT_g, align 8
  %52 = call i32 (ptr, ptr, i32, i64, i64, ptr, ...) @H5E_printf_stack(ptr noundef @.str.1, ptr noundef @__func__.H5P__lacc_reg_prop, i32 noundef 207, i64 noundef %50, i64 noundef %51, ptr noundef @.str.25)
  br label %53

53:                                               ; preds = %49
  store i8 1, ptr %4, align 1
  %54 = load i8, ptr %4, align 1
  %55 = trunc i8 %54 to i1
  %56 = zext i1 %55 to i8
  store i8 %56, ptr %4, align 1
  br label %57

57:                                               ; preds = %53
  br label %58

58:                                               ; preds = %57
  store i32 -1, ptr %3, align 4
  br label %100

59:                                               ; No predecessors!
  br label %60

60:                                               ; preds = %59
  br label %61

61:                                               ; preds = %60, %42
  %62 = load ptr, ptr %2, align 8
  %63 = call i32 @H5P__register_real(ptr noundef %62, ptr noundef @.str.18, i64 noundef 4, ptr noundef @H5L_def_elink_flags_g, ptr noundef null, ptr noundef null, ptr noundef null, ptr noundef @H5P__encode_unsigned, ptr noundef @H5P__decode_unsigned, ptr noundef null, ptr noundef null, ptr noundef null, ptr noundef null)
  %64 = icmp slt i32 %63, 0
  br i1 %64, label %65, label %80

65:                                               ; preds = %61
  br label %66

66:                                               ; preds = %65
  br label %67

67:                                               ; preds = %66
  br label %68

68:                                               ; preds = %67
  %69 = load i64, ptr @H5E_PLIST_g, align 8
  %70 = load i64, ptr @H5E_CANTINSERT_g, align 8
  %71 = call i32 (ptr, ptr, i32, i64, i64, ptr, ...) @H5E_printf_stack(ptr noundef @.str.1, ptr noundef @__func__.H5P__lacc_reg_prop, i32 noundef 213, i64 noundef %69, i64 noundef %70, ptr noundef @.str.25)
  br label %72

72:                                               ; preds = %68
  store i8 1, ptr %4, align 1
  %73 = load i8, ptr %4, align 1
  %74 = trunc i8 %73 to i1
  %75 = zext i1 %74 to i8
  store i8 %75, ptr %4, align 1
  br label %76

76:                                               ; preds = %72
  br label %77

77:                                               ; preds = %76
  store i32 -1, ptr %3, align 4
  br label %100

78:                                               ; No predecessors!
  br label %79

79:                                               ; preds = %78
  br label %80

80:                                               ; preds = %79, %61
  %81 = load ptr, ptr %2, align 8
  %82 = call i32 @H5P__register_real(ptr noundef %81, ptr noundef @.str.22, i64 noundef 16, ptr noundef @H5L_def_elink_cb_g, ptr noundef null, ptr noundef null, ptr noundef null, ptr noundef null, ptr noundef null, ptr noundef null, ptr noundef null, ptr noundef null, ptr noundef null)
  %83 = icmp slt i32 %82, 0
  br i1 %83, label %84, label %99

84:                                               ; preds = %80
  br label %85

85:                                               ; preds = %84
  br label %86

86:                                               ; preds = %85
  br label %87

87:                                               ; preds = %86
  %88 = load i64, ptr @H5E_PLIST_g, align 8
  %89 = load i64, ptr @H5E_CANTINSERT_g, align 8
  %90 = call i32 (ptr, ptr, i32, i64, i64, ptr, ...) @H5E_printf_stack(ptr noundef @.str.1, ptr noundef @__func__.H5P__lacc_reg_prop, i32 noundef 219, i64 noundef %88, i64 noundef %89, ptr noundef @.str.25)
  br label %91

91:                                               ; preds = %87
  store i8 1, ptr %4, align 1
  %92 = load i8, ptr %4, align 1
  %93 = trunc i8 %92 to i1
  %94 = zext i1 %93 to i8
  store i8 %94, ptr %4, align 1
  br label %95

95:                                               ; preds = %91
  br label %96

96:                                               ; preds = %95
  store i32 -1, ptr %3, align 4
  br label %100

97:                                               ; No predecessors!
  br label %98

98:                                               ; preds = %97
  br label %99

99:                                               ; preds = %98, %80
  br label %100

100:                                              ; preds = %99, %96, %77, %58, %39, %20
  %101 = load i32, ptr %3, align 4
  ret i32 %101
}