; Function Attrs: nounwind uwtable
define internal range(i32 -1, 1) i32 @H5P__lacc_reg_prop(ptr noundef %0) #0 {
  %2 = tail call i32 @H5P__register_real(ptr noundef %0, ptr noundef nonnull @.str.6, i64 noundef 8, ptr noundef nonnull @H5L_def_nlinks_g, ptr noundef null, ptr noundef null, ptr noundef null, ptr noundef nonnull @H5P__encode_size_t, ptr noundef nonnull @H5P__decode_size_t, ptr noundef null, ptr noundef null, ptr noundef null, ptr noundef null) #8
  %3 = icmp slt i32 %2, 0
  br i1 %3, label %.sink.split, label %4

4:                                                ; preds = %1
  %5 = tail call i32 @H5P__register_real(ptr noundef %0, ptr noundef nonnull @.str.10, i64 noundef 8, ptr noundef nonnull @H5L_def_elink_prefix_g, ptr noundef null, ptr noundef nonnull @H5P__lacc_elink_pref_set, ptr noundef nonnull @H5P__lacc_elink_pref_get, ptr noundef nonnull @H5P__lacc_elink_pref_enc, ptr noundef nonnull @H5P__lacc_elink_pref_dec, ptr noundef nonnull @H5P__lacc_elink_pref_del, ptr noundef nonnull @H5P__lacc_elink_pref_copy, ptr noundef nonnull @H5P__lacc_elink_pref_cmp, ptr noundef nonnull @H5P__lacc_elink_pref_close) #8
  %6 = icmp slt i32 %5, 0
  br i1 %6, label %.sink.split, label %7

7:                                                ; preds = %4
  %8 = tail call i32 @H5P__register_real(ptr noundef %0, ptr noundef nonnull @.str.14, i64 noundef 8, ptr noundef nonnull @H5L_def_fapl_id_g, ptr noundef null, ptr noundef nonnull @H5P__lacc_elink_fapl_set, ptr noundef nonnull @H5P__lacc_elink_fapl_get, ptr noundef nonnull @H5P__lacc_elink_fapl_enc, ptr noundef nonnull @H5P__lacc_elink_fapl_dec, ptr noundef nonnull @H5P__lacc_elink_fapl_del, ptr noundef nonnull @H5P__lacc_elink_fapl_copy, ptr noundef nonnull @H5P__lacc_elink_fapl_cmp, ptr noundef nonnull @H5P__lacc_elink_fapl_close) #8
  %9 = icmp slt i32 %8, 0
  br i1 %9, label %.sink.split, label %10

10:                                               ; preds = %7
  %11 = tail call i32 @H5P__register_real(ptr noundef %0, ptr noundef nonnull @.str.18, i64 noundef 4, ptr noundef nonnull @H5L_def_elink_flags_g, ptr noundef null, ptr noundef null, ptr noundef null, ptr noundef nonnull @H5P__encode_unsigned, ptr noundef nonnull @H5P__decode_unsigned, ptr noundef null, ptr noundef null, ptr noundef null, ptr noundef null) #8
  %12 = icmp slt i32 %11, 0
  br i1 %12, label %.sink.split, label %13

13:                                               ; preds = %10
  %14 = tail call i32 @H5P__register_real(ptr noundef %0, ptr noundef nonnull @.str.22, i64 noundef 16, ptr noundef nonnull @H5L_def_elink_cb_g, ptr noundef null, ptr noundef null, ptr noundef null, ptr noundef null, ptr noundef null, ptr noundef null, ptr noundef null, ptr noundef null, ptr noundef null) #8
  %15 = icmp slt i32 %14, 0
  br i1 %15, label %.sink.split, label %19

.sink.split:                                      ; preds = %13, %10, %7, %4, %1
  %.sink = phi i32 [ 192, %1 ], [ 200, %4 ], [ 207, %7 ], [ 213, %10 ], [ 219, %13 ]
  %16 = load i64, ptr @H5E_PLIST_g, align 8
  %17 = load i64, ptr @H5E_CANTINSERT_g, align 8
  %18 = tail call i32 (ptr, ptr, i32, i64, i64, ptr, ...) @H5E_printf_stack(ptr noundef nonnull @.str.1, ptr noundef nonnull @__func__.H5P__lacc_reg_prop, i32 noundef %.sink, i64 noundef %16, i64 noundef %17, ptr noundef nonnull @.str.25) #8
  br label %19

19:                                               ; preds = %.sink.split, %13
  %.0 = phi i32 [ 0, %13 ], [ -1, %.sink.split ]
  ret i32 %.0
}